; ModuleID = 'bench/curl/original/conftest.ll'
source_filename = "bench/curl/original/conftest.ll"
target datalayout = "e-m:e-p270:32:32-p271:32:32-p272:64:64-i64:64-i128:128-f80:128-n8:16:32:64-S128"
target triple = "x86_64-pc-linux-gnu"

; Function Attrs: nounwind uwtable
define dso_local range(i32 -128, 128) i32 @main() local_unnamed_addr #0 {
  %1 = tail call signext i8 (...) @SSL_set0_wbio() #2
  %2 = sext i8 %1 to i32
  ret i32 %2
}

declare signext i8 @SSL_set0_wbio(...) local_unnamed_addr #1


!llvm.module.flags = !{!0, !1, !2, !3}

!0 = !{i32 1, !"wchar_size", i32 4}
!1 = !{i32 8, !"PIC Level", i32 2}
!2 = !{i32 7, !"PIE Level", i32 2}
!3 = !{i32 7, !"uwtable", i32 2}
